; Function Attrs: nofree nosync nounwind memory(readwrite, inaccessiblemem: none) uwtable
define void @Saig_StrSimSetContiguousMatching_rec(ptr noundef %0, ptr noundef captures(none) %1) local_unnamed_addr #11 {
  %3 = getelementptr i8, ptr %0, i64 312
  %.val3861 = load i32, ptr %3, align 8, !tbaa !69
  %4 = getelementptr i8, ptr %1, i64 32
  %.val3962 = load i32, ptr %4, align 8, !tbaa !70
  %.not63 = icmp eq i32 %.val3962, %.val3861
  br i1 %.not63, label %Aig_ObjRepr.exit.thread, label %.lr.ph66

.lr.ph66:                                         ; preds = %2
  %5 = getelementptr i8, ptr %0, i64 112
  %6 = getelementptr inbounds nuw i8, ptr %0, i64 16
  %7 = getelementptr i8, ptr %0, i64 108
  %8 = getelementptr i8, ptr %0, i64 256
  %9 = getelementptr i8, ptr %0, i64 176
  %10 = getelementptr i8, ptr %0, i64 32
  br label %11

11:                                               ; preds = %.lr.ph66, %tailrecurse.backedge
  %.val3869 = phi i32 [ %.val3861, %.lr.ph66 ], [ %.val38, %tailrecurse.backedge ]
  %12 = phi ptr [ %4, %.lr.ph66 ], [ %22, %tailrecurse.backedge ]
  %.tr5864 = phi ptr [ %1, %.lr.ph66 ], [ %.tr58.be, %tailrecurse.backedge ]
  store i32 %.val3869, ptr %12, align 8, !tbaa !70
  %13 = getelementptr i8, ptr %.tr5864, i64 24
  %.val4.i = load i64, ptr %13, align 8
  %14 = and i64 %.val4.i, 7
  %.not.i = icmp eq i64 %14, 3
  br i1 %.not.i, label %Saig_ObjIsPo.exit, label %Saig_ObjIsLi.exit.thread

Saig_ObjIsPo.exit:                                ; preds = %11
  %.val3.i = load i32, ptr %.tr5864, align 8, !tbaa !3
  %.val.i = load i32, ptr %5, align 8, !tbaa !43
  %.not55 = icmp slt i32 %.val3.i, %.val.i
  br i1 %.not55, label %Aig_ObjRepr.exit.thread, label %Saig_ObjIsLi.exit

Saig_ObjIsLi.exit:                                ; preds = %Saig_ObjIsPo.exit
  %15 = load ptr, ptr %6, align 8, !tbaa !45
  %.val5.i = load i32, ptr %7, align 4, !tbaa !46
  %16 = add nsw i32 %.val5.i, %.val3.i
  %17 = sub i32 %16, %.val.i
  %18 = getelementptr i8, ptr %15, i64 8
  %.val.i49 = load ptr, ptr %18, align 8, !tbaa !34
  %19 = sext i32 %17 to i64
  %20 = getelementptr inbounds ptr, ptr %.val.i49, i64 %19
  %21 = load ptr, ptr %20, align 8, !tbaa !35
  br label %tailrecurse.backedge

tailrecurse.backedge:                             ; preds = %Saig_ObjIsLi.exit, %55
  %.val38 = phi i32 [ %.val3869, %Saig_ObjIsLi.exit ], [ %.val38.pre, %55 ]
  %.tr58.be = phi ptr [ %21, %Saig_ObjIsLi.exit ], [ %63, %55 ]
  %22 = getelementptr i8, ptr %.tr58.be, i64 32
  %.val39 = load i32, ptr %22, align 8, !tbaa !70
  %.not = icmp eq i32 %.val39, %.val38
  br i1 %.not, label %Aig_ObjRepr.exit.thread, label %11

Saig_ObjIsLi.exit.thread:                         ; preds = %11
  %.val36 = load ptr, ptr %8, align 8, !tbaa !36
  %.not.i50 = icmp eq ptr %.val36, null
  br i1 %.not.i50, label %Aig_ObjRepr.exit.thread, label %Aig_ObjRepr.exit

Aig_ObjRepr.exit:                                 ; preds = %Saig_ObjIsLi.exit.thread
  %23 = getelementptr inbounds nuw i8, ptr %.tr5864, i64 36
  %24 = load i32, ptr %23, align 4, !tbaa !37
  %25 = sext i32 %24 to i64
  %26 = getelementptr inbounds ptr, ptr %.val36, i64 %25
  %27 = load ptr, ptr %26, align 8, !tbaa !38
  %28 = icmp eq ptr %27, null
  br i1 %28, label %Aig_ObjRepr.exit.thread, label %.preheader

.preheader:                                       ; preds = %Aig_ObjRepr.exit
  %29 = and i64 %.val4.i, 4294967232
  %.not67 = icmp eq i64 %29, 0
  br i1 %.not67, label %.critedge, label %.lr.ph

.lr.ph:                                           ; preds = %.preheader, %Aig_ManObj.exit
  %.060 = phi i32 [ %42, %Aig_ManObj.exit ], [ -1, %.preheader ]
  %.02959 = phi i32 [ %50, %Aig_ManObj.exit ], [ 0, %.preheader ]
  %.not33 = icmp eq i32 %.02959, 0
  br i1 %.not33, label %36, label %30

30:                                               ; preds = %.lr.ph
  %31 = ashr i32 %.060, 1
  %32 = mul nsw i32 %31, 5
  %33 = and i32 %.060, 1
  %34 = add nuw nsw i32 %33, 3
  %35 = add i32 %34, %32
  br label %39

36:                                               ; preds = %.lr.ph
  %37 = load i32, ptr %23, align 4, !tbaa !37
  %38 = mul nsw i32 %37, 5
  br label %39

39:                                               ; preds = %36, %30
  %.sink71 = phi i32 [ %38, %36 ], [ %35, %30 ]
  %.val42.sink = load ptr, ptr %9, align 8, !tbaa !78
  %40 = sext i32 %.sink71 to i64
  %41 = getelementptr inbounds i32, ptr %.val42.sink, i64 %40
  %42 = load i32, ptr %41, align 4, !tbaa !6
  %.val43 = load ptr, ptr %10, align 8, !tbaa !20
  %.not.i51 = icmp eq ptr %.val43, null
  br i1 %.not.i51, label %Aig_ManObj.exit, label %43

43:                                               ; preds = %39
  %44 = ashr i32 %42, 1
  %45 = getelementptr i8, ptr %.val43, i64 8
  %.val.i52 = load ptr, ptr %45, align 8, !tbaa !34
  %46 = sext i32 %44 to i64
  %47 = getelementptr inbounds ptr, ptr %.val.i52, i64 %46
  %48 = load ptr, ptr %47, align 8, !tbaa !35
  br label %Aig_ManObj.exit

Aig_ManObj.exit:                                  ; preds = %39, %43
  %49 = phi ptr [ %48, %43 ], [ null, %39 ]
  tail call void @Saig_StrSimSetContiguousMatching_rec(ptr noundef nonnull %0, ptr noundef %49)
  %50 = add nuw nsw i32 %.02959, 1
  %51 = load i64, ptr %13, align 8
  %52 = trunc i64 %51 to i32
  %53 = lshr i32 %52, 6
  %54 = icmp samesign ult i32 %50, %53
  br i1 %54, label %.lr.ph, label %.critedge.loopexit, !llvm.loop !79

.critedge.loopexit:                               ; preds = %Aig_ManObj.exit
  %.pre = and i64 %51, 7
  br label %.critedge

.critedge:                                        ; preds = %.critedge.loopexit, %.preheader
  %.pre-phi = phi i64 [ %.pre, %.critedge.loopexit ], [ %14, %.preheader ]
  %.not57 = icmp eq i64 %.pre-phi, 2
  br i1 %.not57, label %Aig_ObjRepr.exit.thread, label %55

55:                                               ; preds = %.critedge
  %56 = getelementptr i8, ptr %.tr5864, i64 8
  %.val = load ptr, ptr %56, align 8, !tbaa !14
  %57 = ptrtoint ptr %.val to i64
  %58 = and i64 %57, -2
  %59 = inttoptr i64 %58 to ptr
  tail call void @Saig_StrSimSetContiguousMatching_rec(ptr noundef nonnull %0, ptr noundef %59)
  %60 = getelementptr i8, ptr %.tr5864, i64 16
  %.val34 = load ptr, ptr %60, align 8, !tbaa !18
  %61 = ptrtoint ptr %.val34 to i64
  %62 = and i64 %61, -2
  %63 = inttoptr i64 %62 to ptr
  %.val38.pre = load i32, ptr %3, align 8, !tbaa !69
  br label %tailrecurse.backedge

Aig_ObjRepr.exit.thread:                          ; preds = %tailrecurse.backedge, %Saig_ObjIsPo.exit, %Aig_ObjRepr.exit, %.critedge, %Saig_ObjIsLi.exit.thread, %2
  ret void
}